; Function Attrs: mustprogress uwtable
define hidden void @_ZN5osgeo4proj9operation21createMapNameEPSGCodeEPKci(ptr dead_on_unwind noalias writable sret(%"class.osgeo::proj::util::PropertyMap") align 8 %0, ptr noundef %1, i32 noundef %2) local_unnamed_addr #0 personality ptr @__gxx_personality_v0 {
  %4 = alloca %"class.osgeo::proj::util::PropertyMap", align 8
  call void @llvm.lifetime.start.p0(i64 8, ptr nonnull %4) #25
  call void @_ZN5osgeo4proj4util11PropertyMapC1Ev(ptr noundef nonnull align 8 dereferenceable(8) %4)
  %5 = invoke noundef nonnull align 8 dereferenceable(8) ptr @_ZN5osgeo4proj4util11PropertyMap3setERKNSt7__cxx1112basic_stringIcSt11char_traitsIcESaIcEEEPKc(ptr noundef nonnull align 8 dereferenceable(8) %4, ptr noundef nonnull align 8 dereferenceable(32) @_ZN5osgeo4proj6common16IdentifiedObject8NAME_KEYB5cxx11E, ptr noundef %1)
          to label %6 unwind label %12

6:                                                ; preds = %3
  %7 = invoke noundef nonnull align 8 dereferenceable(8) ptr @_ZN5osgeo4proj4util11PropertyMap3setERKNSt7__cxx1112basic_stringIcSt11char_traitsIcESaIcEEESA_(ptr noundef nonnull align 8 dereferenceable(8) %5, ptr noundef nonnull align 8 dereferenceable(32) @_ZN5osgeo4proj8metadata10Identifier13CODESPACE_KEYB5cxx11E, ptr noundef nonnull align 8 dereferenceable(32) @_ZN5osgeo4proj8metadata10Identifier4EPSGB5cxx11E)
          to label %8 unwind label %12

8:                                                ; preds = %6
  %9 = invoke noundef nonnull align 8 dereferenceable(8) ptr @_ZN5osgeo4proj4util11PropertyMap3setERKNSt7__cxx1112basic_stringIcSt11char_traitsIcESaIcEEEi(ptr noundef nonnull align 8 dereferenceable(8) %7, ptr noundef nonnull align 8 dereferenceable(32) @_ZN5osgeo4proj8metadata10Identifier8CODE_KEYB5cxx11E, i32 noundef %2)
          to label %10 unwind label %12

10:                                               ; preds = %8
  invoke void @_ZN5osgeo4proj4util11PropertyMapC1ERKS2_(ptr noundef nonnull align 8 dereferenceable(8) %0, ptr noundef nonnull align 8 dereferenceable(8) %9)
          to label %11 unwind label %12

11:                                               ; preds = %10
  call void @_ZN5osgeo4proj4util11PropertyMapD1Ev(ptr noundef nonnull align 8 dereferenceable(8) %4) #25
  call void @llvm.lifetime.end.p0(i64 8, ptr nonnull %4) #25
  ret void

12:                                               ; preds = %10, %8, %6, %3
  %13 = landingpad { ptr, i32 }
          cleanup
  call void @_ZN5osgeo4proj4util11PropertyMapD1Ev(ptr noundef nonnull align 8 dereferenceable(8) %4) #25
  call void @llvm.lifetime.end.p0(i64 8, ptr nonnull %4) #25
  resume { ptr, i32 } %13
}